; ModuleID = '43/611.c'
source_filename = "43/611.c"
target datalayout = "e-m:e-p270:32:32-p271:32:32-p272:64:64-i64:64-f80:128-n8:16:32:64-S128"
target triple = "x86_64-pc-linux-gnu"

@.str = private unnamed_addr constant [3 x i8] c"%d\00", align 1
@.str.1 = private unnamed_addr constant [7 x i8] c"%d %d\0A\00", align 1

; Function Attrs: noinline nounwind uwtable
define dso_local i32 @main() #0 {
  %1 = alloca i32, align 4
  %2 = alloca i32, align 4
  %3 = alloca i32, align 4
  %4 = alloca i32, align 4
  %5 = alloca i32, align 4
  %6 = alloca i32, align 4
  %7 = alloca i32, align 4
  store i32 0, i32* %1, align 4
  %8 = call i32 (i8*, ...) @__isoc99_scanf(i8* getelementptr inbounds ([3 x i8], [3 x i8]* @.str, i64 0, i64 0), i32* %2)
  store i32 3, i32* %3, align 4
  store i32 3, i32* %3, align 4
  br label %9

9:                                                ; preds = %73, %0
  %10 = load i32, i32* %3, align 4
  %11 = load i32, i32* %2, align 4
  %12 = sdiv i32 %11, 2
  %13 = icmp sle i32 %10, %12
  br i1 %13, label %14, label %76

14:                                               ; preds = %9
  %15 = load i32, i32* %3, align 4
  store i32 %15, i32* %4, align 4
  %16 = load i32, i32* %3, align 4
  store i32 %16, i32* %4, align 4
  br label %17

17:                                               ; preds = %69, %14
  %18 = load i32, i32* %4, align 4
  %19 = load i32, i32* %2, align 4
  %20 = icmp sle i32 %18, %19
  br i1 %20, label %21, label %72

21:                                               ; preds = %17
  %22 = load i32, i32* %3, align 4
  %23 = load i32, i32* %4, align 4
  %24 = add nsw i32 %22, %23
  %25 = load i32, i32* %2, align 4
  %26 = icmp eq i32 %24, %25
  br i1 %26, label %27, label %68

27:                                               ; preds = %21
  store i32 1, i32* %5, align 4
  store i32 1, i32* %6, align 4
  store i32 2, i32* %7, align 4
  store i32 2, i32* %7, align 4
  br label %28

28:                                               ; preds = %39, %27
  %29 = load i32, i32* %7, align 4
  %30 = load i32, i32* %3, align 4
  %31 = icmp slt i32 %29, %30
  br i1 %31, label %32, label %42

32:                                               ; preds = %28
  %33 = load i32, i32* %3, align 4
  %34 = load i32, i32* %7, align 4
  %35 = srem i32 %33, %34
  %36 = icmp eq i32 %35, 0
  br i1 %36, label %37, label %38

37:                                               ; preds = %32
  store i32 -1, i32* %5, align 4
  br label %38

38:                                               ; preds = %37, %32
  br label %39

39:                                               ; preds = %38
  %40 = load i32, i32* %7, align 4
  %41 = add nsw i32 %40, 1
  store i32 %41, i32* %7, align 4
  br label %28

42:                                               ; preds = %28
  store i32 2, i32* %7, align 4
  store i32 2, i32* %7, align 4
  br label %43

43:                                               ; preds = %54, %42
  %44 = load i32, i32* %7, align 4
  %45 = load i32, i32* %4, align 4
  %46 = icmp slt i32 %44, %45
  br i1 %46, label %47, label %57

47:                                               ; preds = %43
  %48 = load i32, i32* %4, align 4
  %49 = load i32, i32* %7, align 4
  %50 = srem i32 %48, %49
  %51 = icmp eq i32 %50, 0
  br i1 %51, label %52, label %53

52:                                               ; preds = %47
  store i32 -1, i32* %6, align 4
  br label %53

53:                                               ; preds = %52, %47
  br label %54

54:                                               ; preds = %53
  %55 = load i32, i32* %7, align 4
  %56 = add nsw i32 %55, 1
  store i32 %56, i32* %7, align 4
  br label %43

57:                                               ; preds = %43
  %58 = load i32, i32* %5, align 4
  %59 = icmp eq i32 %58, 1
  br i1 %59, label %60, label %67

60:                                               ; preds = %57
  %61 = load i32, i32* %6, align 4
  %62 = icmp eq i32 %61, 1
  br i1 %62, label %63, label %67

63:                                               ; preds = %60
  %64 = load i32, i32* %3, align 4
  %65 = load i32, i32* %4, align 4
  %66 = call i32 (i8*, ...) @printf(i8* getelementptr inbounds ([7 x i8], [7 x i8]* @.str.1, i64 0, i64 0), i32 %64, i32 %65)
  br label %67

67:                                               ; preds = %63, %60, %57
  br label %68

68:                                               ; preds = %67, %21
  br label %69

69:                                               ; preds = %68
  %70 = load i32, i32* %4, align 4
  %71 = add nsw i32 %70, 2
  store i32 %71, i32* %4, align 4
  br label %17

72:                                               ; preds = %17
  br label %73

73:                                               ; preds = %72
  %74 = load i32, i32* %3, align 4
  %75 = add nsw i32 %74, 2
  store i32 %75, i32* %3, align 4
  br label %9

76:                                               ; preds = %9
  ret i32 0
}

declare dso_local i32 @__isoc99_scanf(i8*, ...) #1

declare dso_local i32 @printf(i8*, ...) #1


!llvm.module.flags = !{!0}
!llvm.ident = !{!1}

!0 = !{i32 1, !"wchar_size", i32 4}
!1 = !{!"clang version 10.0.0-4ubuntu1 "}
